target datalayout = "e-m:e-p270:32:32-p271:32:32-p272:64:64-i64:64-i128:128-f80:128-n8:16:32:64-S128"
target triple = "x86_64-pc-linux-gnu"

%struct.rb_data_type_struct = type { ptr, %struct.anon, ptr, ptr, i64 }
%struct.anon = type { ptr, ptr, ptr, ptr, [1 x ptr] }
%struct.RBasic = type { i64, i64 }
%struct.RTypedData = type { %struct.RBasic, ptr, i64, ptr }

@ossl_cipher_type = internal constant %struct.rb_data_type_struct { ptr @.str.30, %struct.anon { ptr null, ptr @ossl_cipher_free, ptr null, ptr null, [1 x ptr] zeroinitializer }, ptr null, ptr null, i64 33 }, align 8
@rb_eRuntimeError = external global i64, align 8
@eCipherError = internal global i64 0, align 8
@.str.31 = private unnamed_addr constant [28 x i8] c"Cipher already initialized!\00", align 1
@.str.32 = private unnamed_addr constant [36 x i8] c"unsupported cipher algorithm (%li\0B)\00", align 1

; Function Attrs: nounwind sspstrong uwtable
define internal i64 @ossl_cipher_initialize(i64 noundef %0, i64 noundef %1) #0 {
  %3 = alloca i64, align 8
  %4 = alloca i64, align 8
  %5 = alloca ptr, align 8
  %6 = alloca ptr, align 8
  %7 = alloca ptr, align 8
  store i64 %0, ptr %3, align 8, !tbaa !6
  store i64 %1, ptr %4, align 8, !tbaa !6
  call void @llvm.lifetime.start.p0(i64 8, ptr %5) #20
  call void @llvm.lifetime.start.p0(i64 8, ptr %6) #20
  call void @llvm.lifetime.start.p0(i64 8, ptr %7) #20
  %8 = call ptr @rb_string_value_cstr(ptr noundef %4)
  store ptr %8, ptr %7, align 8, !tbaa !16
  br label %9

9:                                                ; preds = %2
  %10 = load i64, ptr %3, align 8, !tbaa !6
  %11 = call ptr @rb_check_typeddata(i64 noundef %10, ptr noundef @ossl_cipher_type)
  store ptr %11, ptr %5, align 8, !tbaa !10
  br label %12

12:                                               ; preds = %9
  br label %13

13:                                               ; preds = %12
  %14 = load ptr, ptr %5, align 8, !tbaa !10
  %15 = icmp ne ptr %14, null
  br i1 %15, label %16, label %18

16:                                               ; preds = %13
  %17 = load i64, ptr @rb_eRuntimeError, align 8, !tbaa !6
  call void (i64, ptr, ...) @ossl_raise(i64 noundef %17, ptr noundef @.str.31) #21
  unreachable

18:                                               ; preds = %13
  br label %19

19:                                               ; preds = %18
  %20 = call ptr @EVP_CIPHER_CTX_new()
  store ptr %20, ptr %5, align 8, !tbaa !10
  %21 = load ptr, ptr %5, align 8, !tbaa !10
  %22 = icmp ne ptr %21, null
  br i1 %22, label %25, label %23

23:                                               ; preds = %19
  %24 = load i64, ptr @rb_eRuntimeError, align 8, !tbaa !6
  call void (i64, ptr, ...) @ossl_raise(i64 noundef %24, ptr noundef null) #21
  unreachable

25:                                               ; preds = %19
  %26 = load ptr, ptr %5, align 8, !tbaa !10
  %27 = load i64, ptr %3, align 8, !tbaa !6
  %28 = inttoptr i64 %27 to ptr
  %29 = getelementptr inbounds nuw %struct.RTypedData, ptr %28, i32 0, i32 3
  store ptr %26, ptr %29, align 8, !tbaa !18
  br label %30

30:                                               ; preds = %25
  br label %31

31:                                               ; preds = %30
  %32 = load ptr, ptr %7, align 8, !tbaa !16
  %33 = call ptr @EVP_get_cipherbyname(ptr noundef %32)
  store ptr %33, ptr %6, align 8, !tbaa !13
  %34 = icmp ne ptr %33, null
  br i1 %34, label %38, label %35

35:                                               ; preds = %31
  %36 = load i64, ptr @rb_eRuntimeError, align 8, !tbaa !6
  %37 = load i64, ptr %4, align 8, !tbaa !6
  call void (i64, ptr, ...) @ossl_raise(i64 noundef %36, ptr noundef @.str.32, i64 noundef %37) #21
  unreachable

38:                                               ; preds = %31
  %39 = load ptr, ptr %5, align 8, !tbaa !10
  %40 = load ptr, ptr %6, align 8, !tbaa !13
  %41 = call i32 @EVP_CipherInit_ex(ptr noundef %39, ptr noundef %40, ptr noundef null, ptr noundef null, ptr noundef null, i32 noundef -1)
  %42 = icmp ne i32 %41, 1
  br i1 %42, label %43, label %45

43:                                               ; preds = %38
  %44 = load i64, ptr @eCipherError, align 8, !tbaa !6
  call void (i64, ptr, ...) @ossl_raise(i64 noundef %44, ptr noundef null) #21
  unreachable

45:                                               ; preds = %38
  %46 = load i64, ptr %3, align 8, !tbaa !6
  call void @llvm.lifetime.end.p0(i64 8, ptr %7) #20
  call void @llvm.lifetime.end.p0(i64 8, ptr %6) #20
  call void @llvm.lifetime.end.p0(i64 8, ptr %5) #20
  ret i64 %46
}