; Function Attrs: nounwind sspstrong uwtable
define internal noundef i64 @ossl_cipher_initialize(i64 noundef returned %0, i64 noundef %1) #0 {
  %3 = alloca i64, align 8
  store i64 %1, ptr %3, align 8, !tbaa !6
  %4 = call ptr @rb_string_value_cstr(ptr noundef nonnull %3) #11
  %5 = call ptr @rb_check_typeddata(i64 noundef %0, ptr noundef nonnull @ossl_cipher_type) #11
  %.not = icmp eq ptr %5, null
  br i1 %.not, label %8, label %6

6:                                                ; preds = %2
  %7 = load i64, ptr @rb_eRuntimeError, align 8, !tbaa !6
  call void (i64, ptr, ...) @ossl_raise(i64 noundef %7, ptr noundef nonnull @.str.31) #12
  unreachable

8:                                                ; preds = %2
  %9 = call ptr @EVP_CIPHER_CTX_new() #11
  %.not9 = icmp eq ptr %9, null
  br i1 %.not9, label %10, label %12

10:                                               ; preds = %8
  %11 = load i64, ptr @rb_eRuntimeError, align 8, !tbaa !6
  call void (i64, ptr, ...) @ossl_raise(i64 noundef %11, ptr noundef null) #12
  unreachable

12:                                               ; preds = %8
  %13 = inttoptr i64 %0 to ptr
  %14 = getelementptr inbounds nuw i8, ptr %13, i64 32
  store ptr %9, ptr %14, align 8, !tbaa !15
  %15 = call ptr @EVP_get_cipherbyname(ptr noundef %4) #11
  %.not10 = icmp eq ptr %15, null
  br i1 %.not10, label %16, label %19

16:                                               ; preds = %12
  %17 = load i64, ptr @rb_eRuntimeError, align 8, !tbaa !6
  %18 = load i64, ptr %3, align 8, !tbaa !6
  call void (i64, ptr, ...) @ossl_raise(i64 noundef %17, ptr noundef nonnull @.str.32, i64 noundef %18) #12
  unreachable

19:                                               ; preds = %12
  %20 = call i32 @EVP_CipherInit_ex(ptr noundef nonnull %9, ptr noundef nonnull %15, ptr noundef null, ptr noundef null, ptr noundef null, i32 noundef -1) #11
  %.not11 = icmp eq i32 %20, 1
  br i1 %.not11, label %23, label %21

21:                                               ; preds = %19
  %22 = load i64, ptr @eCipherError, align 8, !tbaa !6
  call void (i64, ptr, ...) @ossl_raise(i64 noundef %22, ptr noundef null) #12
  unreachable

23:                                               ; preds = %19
  ret i64 %0
}